target datalayout = "e-m:e-p270:32:32-p271:32:32-p272:64:64-i64:64-i128:128-f80:128-n8:16:32:64-S128"
target triple = "x86_64-pc-linux-gnu"

%struct.rule = type { ptr, ptr, i32, i32, i32, ptr, ptr, i32, ptr, ptr, ptr, ptr, i32, i32, i32, i32, i32, i32, i32, ptr, ptr }
%struct.config = type { ptr, i32, ptr, ptr, ptr, ptr, i32, ptr, ptr }

; Function Attrs: nounwind null_pointer_is_valid sspstrong uwtable
define hidden i32 @statecmp(ptr noundef %0, ptr noundef %1) #2 {
  %3 = alloca ptr, align 8
  %4 = alloca ptr, align 8
  %5 = alloca i32, align 4
  store ptr %0, ptr %3, align 8
  store ptr %1, ptr %4, align 8
  call void @llvm.lifetime.start.p0(i64 4, ptr %5) #18
  store i32 0, ptr %5, align 4
  br label %6

6:                                                ; preds = %40, %2
  %7 = load i32, ptr %5, align 4
  %8 = icmp eq i32 %7, 0
  br i1 %8, label %9, label %15

9:                                                ; preds = %6
  %10 = load ptr, ptr %3, align 8
  %11 = icmp ne ptr %10, null
  br i1 %11, label %12, label %15

12:                                               ; preds = %9
  %13 = load ptr, ptr %4, align 8
  %14 = icmp ne ptr %13, null
  br label %15

15:                                               ; preds = %12, %9, %6
  %16 = phi i1 [ false, %9 ], [ false, %6 ], [ %14, %12 ]
  br i1 %16, label %17, label %47

17:                                               ; preds = %15
  %18 = load ptr, ptr %3, align 8
  %19 = getelementptr inbounds nuw %struct.config, ptr %18, i32 0, i32 0
  %20 = load ptr, ptr %19, align 8
  %21 = getelementptr inbounds nuw %struct.rule, ptr %20, i32 0, i32 12
  %22 = load i32, ptr %21, align 8
  %23 = load ptr, ptr %4, align 8
  %24 = getelementptr inbounds nuw %struct.config, ptr %23, i32 0, i32 0
  %25 = load ptr, ptr %24, align 8
  %26 = getelementptr inbounds nuw %struct.rule, ptr %25, i32 0, i32 12
  %27 = load i32, ptr %26, align 8
  %28 = sub i32 %22, %27
  store i32 %28, ptr %5, align 4
  %29 = load i32, ptr %5, align 4
  %30 = icmp eq i32 %29, 0
  br i1 %30, label %31, label %39

31:                                               ; preds = %17
  %32 = load ptr, ptr %3, align 8
  %33 = getelementptr inbounds nuw %struct.config, ptr %32, i32 0, i32 1
  %34 = load i32, ptr %33, align 8
  %35 = load ptr, ptr %4, align 8
  %36 = getelementptr inbounds nuw %struct.config, ptr %35, i32 0, i32 1
  %37 = load i32, ptr %36, align 8
  %38 = sub i32 %34, %37
  store i32 %38, ptr %5, align 4
  br label %39

39:                                               ; preds = %31, %17
  br label %40

40:                                               ; preds = %39
  %41 = load ptr, ptr %3, align 8
  %42 = getelementptr inbounds nuw %struct.config, ptr %41, i32 0, i32 8
  %43 = load ptr, ptr %42, align 8
  store ptr %43, ptr %3, align 8
  %44 = load ptr, ptr %4, align 8
  %45 = getelementptr inbounds nuw %struct.config, ptr %44, i32 0, i32 8
  %46 = load ptr, ptr %45, align 8
  store ptr %46, ptr %4, align 8
  br label %6, !llvm.loop !240

47:                                               ; preds = %15
  %48 = load i32, ptr %5, align 4
  %49 = icmp eq i32 %48, 0
  br i1 %49, label %50, label %59

50:                                               ; preds = %47
  %51 = load ptr, ptr %3, align 8
  %52 = icmp ne ptr %51, null
  br i1 %52, label %53, label %54

53:                                               ; preds = %50
  store i32 1, ptr %5, align 4
  br label %54

54:                                               ; preds = %53, %50
  %55 = load ptr, ptr %4, align 8
  %56 = icmp ne ptr %55, null
  br i1 %56, label %57, label %58

57:                                               ; preds = %54
  store i32 -1, ptr %5, align 4
  br label %58

58:                                               ; preds = %57, %54
  br label %59

59:                                               ; preds = %58, %47
  %60 = load i32, ptr %5, align 4
  call void @llvm.lifetime.end.p0(i64 4, ptr %5) #18
  ret i32 %60
}