; Function Attrs: nofree norecurse nosync nounwind null_pointer_is_valid sspstrong memory(read, inaccessiblemem: none) uwtable
define hidden i32 @statecmp(ptr noundef readonly captures(address_is_null) %0, ptr noundef readonly captures(address_is_null) %1) local_unnamed_addr #8 {
  %3 = icmp ne ptr %0, null
  %4 = icmp ne ptr %1, null
  %or.cond322 = and i1 %3, %4
  br i1 %or.cond322, label %.lr.ph, label %.critedge.thread

.critedge.thread:                                 ; preds = %2
  %spec.select35 = zext i1 %3 to i32
  %spec.select1936 = select i1 %4, i32 -1, i32 %spec.select35
  br label %27

.lr.ph:                                           ; preds = %2, %19
  %.01624 = phi ptr [ %23, %19 ], [ %1, %2 ]
  %.01723 = phi ptr [ %21, %19 ], [ %0, %2 ]
  %5 = load ptr, ptr %.01723, align 8
  %6 = getelementptr inbounds nuw i8, ptr %5, i64 88
  %7 = load i32, ptr %6, align 8
  %8 = load ptr, ptr %.01624, align 8
  %9 = getelementptr inbounds nuw i8, ptr %8, i64 88
  %10 = load i32, ptr %9, align 8
  %11 = sub i32 %7, %10
  %12 = icmp eq i32 %11, 0
  br i1 %12, label %13, label %19

13:                                               ; preds = %.lr.ph
  %14 = getelementptr inbounds nuw i8, ptr %.01723, i64 8
  %15 = load i32, ptr %14, align 8
  %16 = getelementptr inbounds nuw i8, ptr %.01624, i64 8
  %17 = load i32, ptr %16, align 8
  %18 = sub i32 %15, %17
  br label %19

19:                                               ; preds = %.lr.ph, %13
  %.1 = phi i32 [ %18, %13 ], [ %11, %.lr.ph ]
  %.1.fr = freeze i32 %.1
  %20 = getelementptr inbounds nuw i8, ptr %.01723, i64 64
  %21 = load ptr, ptr %20, align 8
  %22 = getelementptr inbounds nuw i8, ptr %.01624, i64 64
  %23 = load ptr, ptr %22, align 8
  %24 = icmp eq i32 %.1.fr, 0
  %25 = icmp ne ptr %21, null
  %or.cond = select i1 %24, i1 %25, i1 false
  %26 = icmp ne ptr %23, null
  %or.cond3 = select i1 %or.cond, i1 %26, i1 false
  br i1 %or.cond3, label %.lr.ph, label %.critedge, !llvm.loop !49

.critedge:                                        ; preds = %19
  %spec.select = zext i1 %25 to i32
  %spec.select19 = select i1 %26, i32 -1, i32 %spec.select
  %spec.select41 = select i1 %24, i32 %spec.select19, i32 %.1.fr
  br label %27

27:                                               ; preds = %.critedge, %.critedge.thread
  %28 = phi i32 [ %spec.select1936, %.critedge.thread ], [ %spec.select41, %.critedge ]
  ret i32 %28
}